target datalayout = "e-m:e-p270:32:32-p271:32:32-p272:64:64-i64:64-i128:128-f80:128-n8:16:32:64-S128"
target triple = "x86_64-pc-linux-gnu"

%struct._psqlSettings = type { ptr, i32, ptr, i8, ptr, ptr, %struct.printQueryOpt, ptr, ptr, ptr, i8, i8, i32, i32, ptr, ptr, i8, [4 x ptr], i8, i32, ptr, i8, i32, ptr, ptr, i64, i64, i8, ptr, ptr, ptr, i8, i8, i8, i8, i8, i8, i8, i32, i32, i32, i32, i32, i32, i32, i32, ptr, ptr, ptr, i32, i8, i32 }
%struct.printQueryOpt = type { %struct.printTableOpt, ptr, ptr, ptr, i8, ptr, i32 }
%struct.printTableOpt = type { i32, i16, i32, i32, i16, i16, i32, i8, i8, i8, i8, i64, ptr, %struct.separator, %struct.separator, [2 x i8], i8, ptr, i32, i32, i32, i32, i32, i32 }
%struct.separator = type { ptr, i8 }

@pset = external global %struct._psqlSettings, align 8
@.str.11 = private unnamed_addr constant [32 x i8] c"%s: not connected to a database\00", align 1
@.str.12 = private unnamed_addr constant [6 x i8] c"BEGIN\00", align 1
@.str.13 = private unnamed_addr constant [35 x i8] c"%s: current transaction is aborted\00", align 1
@.str.14 = private unnamed_addr constant [31 x i8] c"%s: unknown transaction status\00", align 1

; Function Attrs: nounwind uwtable
define internal zeroext i1 @start_lo_xact(ptr noundef %0, ptr noundef %1) #0 {
  %3 = alloca i1, align 1
  %4 = alloca ptr, align 8
  %5 = alloca ptr, align 8
  %6 = alloca i32, align 4
  %7 = alloca ptr, align 8
  %8 = alloca i32, align 4
  store ptr %0, ptr %4, align 8
  store ptr %1, ptr %5, align 8
  call void @llvm.lifetime.start.p0(i64 4, ptr %6) #6
  call void @llvm.lifetime.start.p0(i64 8, ptr %7) #6
  %9 = load ptr, ptr %5, align 8
  store i8 0, ptr %9, align 1
  %10 = load ptr, ptr @pset, align 8
  %11 = icmp ne ptr %10, null
  br i1 %11, label %14, label %12

12:                                               ; preds = %2
  %13 = load ptr, ptr %4, align 8
  call void (i32, i32, ptr, ...) @pg_log_generic(i32 noundef 4, i32 noundef 0, ptr noundef @.str.11, ptr noundef %13)
  store i1 false, ptr %3, align 1
  store i32 1, ptr %8, align 4
  br label %30

14:                                               ; preds = %2
  %15 = load ptr, ptr @pset, align 8
  %16 = call i32 @PQtransactionStatus(ptr noundef %15)
  store i32 %16, ptr %6, align 4
  %17 = load i32, ptr %6, align 4
  switch i32 %17, label %27 [
    i32 0, label %18
    i32 2, label %29
    i32 3, label %25
  ]

18:                                               ; preds = %14
  %19 = call ptr @PSQLexec(ptr noundef @.str.12)
  store ptr %19, ptr %7, align 8
  %20 = icmp ne ptr %19, null
  br i1 %20, label %22, label %21

21:                                               ; preds = %18
  store i1 false, ptr %3, align 1
  store i32 1, ptr %8, align 4
  br label %30

22:                                               ; preds = %18
  %23 = load ptr, ptr %7, align 8
  call void @PQclear(ptr noundef %23)
  %24 = load ptr, ptr %5, align 8
  store i8 1, ptr %24, align 1
  br label %29

25:                                               ; preds = %14
  %26 = load ptr, ptr %4, align 8
  call void (i32, i32, ptr, ...) @pg_log_generic(i32 noundef 4, i32 noundef 0, ptr noundef @.str.13, ptr noundef %26)
  store i1 false, ptr %3, align 1
  store i32 1, ptr %8, align 4
  br label %30

27:                                               ; preds = %14
  %28 = load ptr, ptr %4, align 8
  call void (i32, i32, ptr, ...) @pg_log_generic(i32 noundef 4, i32 noundef 0, ptr noundef @.str.14, ptr noundef %28)
  store i1 false, ptr %3, align 1
  store i32 1, ptr %8, align 4
  br label %30

29:                                               ; preds = %14, %22
  store i1 true, ptr %3, align 1
  store i32 1, ptr %8, align 4
  br label %30

30:                                               ; preds = %29, %27, %25, %21, %12
  call void @llvm.lifetime.end.p0(i64 8, ptr %7) #6
  call void @llvm.lifetime.end.p0(i64 4, ptr %6) #6
  %31 = load i1, ptr %3, align 1
  ret i1 %31
}