; Function Attrs: nounwind uwtable
define internal fastcc noundef zeroext i1 @start_lo_xact(ptr noundef %0, ptr noundef nonnull writeonly captures(none) initializes((0, 1)) %1) unnamed_addr #0 {
  store i8 0, ptr %1, align 1
  %3 = load ptr, ptr @pset, align 8
  %.not = icmp eq ptr %3, null
  br i1 %.not, label %4, label %5

4:                                                ; preds = %2
  tail call void (i32, i32, ptr, ...) @pg_log_generic(i32 noundef 4, i32 noundef 0, ptr noundef nonnull @.str.11, ptr noundef %0) #8
  br label %12

5:                                                ; preds = %2
  %6 = tail call i32 @PQtransactionStatus(ptr noundef nonnull %3) #8
  switch i32 %6, label %11 [
    i32 0, label %7
    i32 2, label %12
    i32 3, label %10
  ]

7:                                                ; preds = %5
  %8 = tail call ptr @PSQLexec(ptr noundef nonnull @.str.12) #8
  %.not9 = icmp eq ptr %8, null
  br i1 %.not9, label %12, label %9

9:                                                ; preds = %7
  tail call void @PQclear(ptr noundef nonnull %8) #8
  store i8 1, ptr %1, align 1
  br label %12

10:                                               ; preds = %5
  tail call void (i32, i32, ptr, ...) @pg_log_generic(i32 noundef 4, i32 noundef 0, ptr noundef nonnull @.str.13, ptr noundef %0) #8
  br label %12

11:                                               ; preds = %5
  tail call void (i32, i32, ptr, ...) @pg_log_generic(i32 noundef 4, i32 noundef 0, ptr noundef nonnull @.str.14, ptr noundef %0) #8
  br label %12

12:                                               ; preds = %5, %9, %7, %11, %10, %4
  %.0 = phi i1 [ false, %11 ], [ false, %10 ], [ false, %4 ], [ false, %7 ], [ true, %9 ], [ true, %5 ]
  ret i1 %.0
}